(lp1
((I116
I112
I107
tS'C:\\dev\\github\\hackbaseball\\blob\\temp\\flick1.jpg'
p2
tp3
a((I106
I116
I110
tS'C:\\dev\\github\\hackbaseball\\blob\\temp\\flick10.jpg'
p4
tp5
a((I174
I172
I118
tS'C:\\dev\\github\\hackbaseball\\blob\\temp\\flick100.jpg'
p6
tp7
a((I88
I93
I107
tS'C:\\dev\\github\\hackbaseball\\blob\\temp\\flick1000.jpg'
p8
tp9
a((I103
I106
I86
tS'C:\\dev\\github\\hackbaseball\\blob\\temp\\flick10000.jpg'
p10
tp11
a((I94
I84
I60
tS'C:\\dev\\github\\hackbaseball\\blob\\temp\\flick10001.jpg'
p12
tp13
a((I150
I149
I150
tS'C:\\dev\\github\\hackbaseball\\blob\\temp\\flick10002.jpg'
p14
tp15
a((I123
I119
I117
tS'C:\\dev\\github\\hackbaseball\\blob\\temp\\flick10003.jpg'
p16
tp17
a((I150
I126
I108
tS'C:\\dev\\github\\hackbaseball\\blob\\temp\\flick10004.jpg'
p18
tp19
a((I116
I110
I111
tS'C:\\dev\\github\\hackbaseball\\blob\\temp\\flick10005.jpg'
p20
tp21
a((I115
I108
I106
tS'C:\\dev\\github\\hackbaseball\\blob\\temp\\flick10006.jpg'
p22
tp23
a((I119
I103
I95
tS'C:\\dev\\github\\hackbaseball\\blob\\temp\\flick10007.jpg'
p24
tp25
a((I129
I121
I103
tS'C:\\dev\\github\\hackbaseball\\blob\\temp\\flick10008.jpg'
p26
tp27
a((I123
I106
I96
tS'C:\\dev\\github\\hackbaseball\\blob\\temp\\flick10009.jpg'
p28
tp29
a((I135
I132
I130
tS'C:\\dev\\github\\hackbaseball\\blob\\temp\\flick1001.jpg'
p30
tp31
a((I136
I124
I105
tS'C:\\dev\\github\\hackbaseball\\blob\\temp\\flick10010.jpg'
p32
tp33
a((I56
I47
I37
tS'C:\\dev\\github\\hackbaseball\\blob\\temp\\flick10011.jpg'
p34
tp35
a((I138
I128
I118
tS'C:\\dev\\github\\hackbaseball\\blob\\temp\\flick10012.jpg'
p36
tp37
a((I141
I131
I121
tS'C:\\dev\\github\\hackbaseball\\blob\\temp\\flick10013.jpg'
p38
tp39
a((I134
I113
I89
tS'C:\\dev\\github\\hackbaseball\\blob\\temp\\flick10014.jpg'
p40
tp41
a((I122
I107
I86
tS'C:\\dev\\github\\hackbaseball\\blob\\temp\\flick10015.jpg'
p42
tp43
a((I125
I120
I123
tS'C:\\dev\\github\\hackbaseball\\blob\\temp\\flick10016.jpg'
p44
tp45
a((I117
I114
I119
tS'C:\\dev\\github\\hackbaseball\\blob\\temp\\flick10017.jpg'
p46
tp47
a((I128
I129
I111
tS'C:\\dev\\github\\hackbaseball\\blob\\temp\\flick10018.jpg'
p48
tp49
a((I154
I136
I89
tS'C:\\dev\\github\\hackbaseball\\blob\\temp\\flick10019.jpg'
p50
tp51
a((I117
I117
I117
tS'C:\\dev\\github\\hackbaseball\\blob\\temp\\flick1002.jpg'
p52
tp53
a((I124
I114
I95
tS'C:\\dev\\github\\hackbaseball\\blob\\temp\\flick10020.jpg'
p54
tp55
a((I80
I115
I165
tS'C:\\dev\\github\\hackbaseball\\blob\\temp\\flick10021.jpg'
p56
tp57
a((I143
I147
I146
tS'C:\\dev\\github\\hackbaseball\\blob\\temp\\flick10022.jpg'
p58
tp59
a((I88
I93
I107
tS'C:\\dev\\github\\hackbaseball\\blob\\temp\\flick10023.jpg'
p60
tp61
a((I135
I132
I130
tS'C:\\dev\\github\\hackbaseball\\blob\\temp\\flick10024.jpg'
p62
tp63
a((I66
I82
I110
tS'C:\\dev\\github\\hackbaseball\\blob\\temp\\flick10025.jpg'
p64
tp65
a((I91
I100
I122
tS'C:\\dev\\github\\hackbaseball\\blob\\temp\\flick10026.jpg'
p66
tp67
a((I143
I147
I146
tS'C:\\dev\\github\\hackbaseball\\blob\\temp\\flick10027.jpg'
p68
tp69
a((I143
I147
I146
tS'C:\\dev\\github\\hackbaseball\\blob\\temp\\flick10028.jpg'
p70
tp71
a((I155
I107
I70
tS'C:\\dev\\github\\hackbaseball\\blob\\temp\\flick10029.jpg'
p72
tp73
a((I78
I77
I82
tS'C:\\dev\\github\\hackbaseball\\blob\\temp\\flick1003.jpg'
p74
tp75
a((I101
I101
I101
tS'C:\\dev\\github\\hackbaseball\\blob\\temp\\flick1004.jpg'
p76
tp77
a((I126
I125
I125
tS'C:\\dev\\github\\hackbaseball\\blob\\temp\\flick1005.jpg'
p78
tp79
a((I27
I15
I18
tS'C:\\dev\\github\\hackbaseball\\blob\\temp\\flick1006.jpg'
p80
tp81
a((I116
I108
I100
tS'C:\\dev\\github\\hackbaseball\\blob\\temp\\flick1007.jpg'
p82
tp83
a((I164
I142
I96
tS'C:\\dev\\github\\hackbaseball\\blob\\temp\\flick1008.jpg'
p84
tp85
a((I120
I96
I96
tS'C:\\dev\\github\\hackbaseball\\blob\\temp\\flick1009.jpg'
p86
tp87
a((I157
I165
I116
tS'C:\\dev\\github\\hackbaseball\\blob\\temp\\flick101.jpg'
p88
tp89
a((I118
I98
I99
tS'C:\\dev\\github\\hackbaseball\\blob\\temp\\flick1010.jpg'
p90
tp91
a((I114
I93
I91
tS'C:\\dev\\github\\hackbaseball\\blob\\temp\\flick1011.jpg'
p92
tp93
a((I117
I96
I98
tS'C:\\dev\\github\\hackbaseball\\blob\\temp\\flick1012.jpg'
p94
tp95
a((I104
I84
I85
tS'C:\\dev\\github\\hackbaseball\\blob\\temp\\flick1013.jpg'
p96
tp97
a((I105
I77
I71
tS'C:\\dev\\github\\hackbaseball\\blob\\temp\\flick1014.jpg'
p98
tp99
a((I94
I86
I85
tS'C:\\dev\\github\\hackbaseball\\blob\\temp\\flick1015.jpg'
p100
tp101
a((I140
I124
I121
tS'C:\\dev\\github\\hackbaseball\\blob\\temp\\flick1016.jpg'
p102
tp103
a((I102
I85
I79
tS'C:\\dev\\github\\hackbaseball\\blob\\temp\\flick1017.jpg'
p104
tp105
a((I211
I190
I153
tS'C:\\dev\\github\\hackbaseball\\blob\\temp\\flick1018.jpg'
p106
tp107
a((I146
I123
I72
tS'C:\\dev\\github\\hackbaseball\\blob\\temp\\flick1019.jpg'
p108
tp109
a((I105
I77
I83
tS'C:\\dev\\github\\hackbaseball\\blob\\temp\\flick102.jpg'
p110
tp111
a((I129
I127
I115
tS'C:\\dev\\github\\hackbaseball\\blob\\temp\\flick1020.jpg'
p112
tp113
a((I119
I114
I107
tS'C:\\dev\\github\\hackbaseball\\blob\\temp\\flick1021.jpg'
p114
tp115
a((I133
I132
I119
tS'C:\\dev\\github\\hackbaseball\\blob\\temp\\flick1022.jpg'
p116
tp117
a((I117
I121
I122
tS'C:\\dev\\github\\hackbaseball\\blob\\temp\\flick1023.jpg'
p118
tp119
a((I104
I108
I98
tS'C:\\dev\\github\\hackbaseball\\blob\\temp\\flick1024.jpg'
p120
tp121
a((I110
I107
I94
tS'C:\\dev\\github\\hackbaseball\\blob\\temp\\flick1025.jpg'
p122
tp123
a((I109
I119
I91
tS'C:\\dev\\github\\hackbaseball\\blob\\temp\\flick1026.jpg'
p124
tp125
a((I138
I130
I143
tS'C:\\dev\\github\\hackbaseball\\blob\\temp\\flick1027.jpg'
p126
tp127
a((I122
I152
I136
tS'C:\\dev\\github\\hackbaseball\\blob\\temp\\flick1028.jpg'
p128
tp129
a((I104
I111
I88
tS'C:\\dev\\github\\hackbaseball\\blob\\temp\\flick1029.jpg'
p130
tp131
a((I181
I188
I136
tS'C:\\dev\\github\\hackbaseball\\blob\\temp\\flick103.jpg'
p132
tp133
a((I104
I97
I97
tS'C:\\dev\\github\\hackbaseball\\blob\\temp\\flick1030.jpg'
p134
tp135
a((I125
I117
I136
tS'C:\\dev\\github\\hackbaseball\\blob\\temp\\flick1031.jpg'
p136
tp137
a((I135
I132
I110
tS'C:\\dev\\github\\hackbaseball\\blob\\temp\\flick1032.jpg'
p138
tp139
a((I107
I119
I95
tS'C:\\dev\\github\\hackbaseball\\blob\\temp\\flick1033.jpg'
p140
tp141
a((I120
I109
I105
tS'C:\\dev\\github\\hackbaseball\\blob\\temp\\flick1034.jpg'
p142
tp143
a((I118
I123
I114
tS'C:\\dev\\github\\hackbaseball\\blob\\temp\\flick1035.jpg'
p144
tp145
a((I124
I128
I134
tS'C:\\dev\\github\\hackbaseball\\blob\\temp\\flick1036.jpg'
p146
tp147
a((I119
I124
I130
tS'C:\\dev\\github\\hackbaseball\\blob\\temp\\flick1037.jpg'
p148
tp149
a((I118
I119
I127
tS'C:\\dev\\github\\hackbaseball\\blob\\temp\\flick1038.jpg'
p150
tp151
a((I106
I112
I95
tS'C:\\dev\\github\\hackbaseball\\blob\\temp\\flick1039.jpg'
p152
tp153
a((I141
I128
I88
tS'C:\\dev\\github\\hackbaseball\\blob\\temp\\flick104.jpg'
p154
tp155
a((I104
I105
I111
tS'C:\\dev\\github\\hackbaseball\\blob\\temp\\flick1040.jpg'
p156
tp157
a((I120
I114
I126
tS'C:\\dev\\github\\hackbaseball\\blob\\temp\\flick1041.jpg'
p158
tp159
a((I108
I111
I114
tS'C:\\dev\\github\\hackbaseball\\blob\\temp\\flick1042.jpg'
p160
tp161
a((I116
I127
I106
tS'C:\\dev\\github\\hackbaseball\\blob\\temp\\flick1043.jpg'
p162
tp163
a((I125
I132
I119
tS'C:\\dev\\github\\hackbaseball\\blob\\temp\\flick1044.jpg'
p164
tp165
a((I96
I105
I85
tS'C:\\dev\\github\\hackbaseball\\blob\\temp\\flick1045.jpg'
p166
tp167
a((I105
I111
I120
tS'C:\\dev\\github\\hackbaseball\\blob\\temp\\flick1046.jpg'
p168
tp169
a((I99
I98
I115
tS'C:\\dev\\github\\hackbaseball\\blob\\temp\\flick1047.jpg'
p170
tp171
a((I110
I110
I114
tS'C:\\dev\\github\\hackbaseball\\blob\\temp\\flick1048.jpg'
p172
tp173
a((I150
I149
I150
tS'C:\\dev\\github\\hackbaseball\\blob\\temp\\flick1049.jpg'
p174
tp175
a((I116
I112
I107
tS'C:\\dev\\github\\hackbaseball\\blob\\temp\\flick105.jpg'
p176
tp177
a((I109
I109
I117
tS'C:\\dev\\github\\hackbaseball\\blob\\temp\\flick1050.jpg'
p178
tp179
a((I122
I110
I95
tS'C:\\dev\\github\\hackbaseball\\blob\\temp\\flick1051.jpg'
p180
tp181
a((I127
I144
I126
tS'C:\\dev\\github\\hackbaseball\\blob\\temp\\flick1052.jpg'
p182
tp183
a((I110
I109
I112
tS'C:\\dev\\github\\hackbaseball\\blob\\temp\\flick1053.jpg'
p184
tp185
a((I126
I126
I121
tS'C:\\dev\\github\\hackbaseball\\blob\\temp\\flick1054.jpg'
p186
tp187
a((I127
I129
I113
tS'C:\\dev\\github\\hackbaseball\\blob\\temp\\flick1055.jpg'
p188
tp189
a((I138
I143
I133
tS'C:\\dev\\github\\hackbaseball\\blob\\temp\\flick1056.jpg'
p190
tp191
a((I123
I119
I117
tS'C:\\dev\\github\\hackbaseball\\blob\\temp\\flick1057.jpg'
p192
tp193
a((I113
I105
I98
tS'C:\\dev\\github\\hackbaseball\\blob\\temp\\flick1058.jpg'
p194
tp195
a((I119
I116
I119
tS'C:\\dev\\github\\hackbaseball\\blob\\temp\\flick1059.jpg'
p196
tp197
a((I136
I143
I116
tS'C:\\dev\\github\\hackbaseball\\blob\\temp\\flick1060.jpg'
p198
tp199
a((I159
I137
I143
tS'C:\\dev\\github\\hackbaseball\\blob\\temp\\flick1061.jpg'
p200
tp201
a((I126
I110
I117
tS'C:\\dev\\github\\hackbaseball\\blob\\temp\\flick1062.jpg'
p202
tp203
a((I128
I116
I90
tS'C:\\dev\\github\\hackbaseball\\blob\\temp\\flick1063.jpg'
p204
tp205
a((I150
I126
I108
tS'C:\\dev\\github\\hackbaseball\\blob\\temp\\flick1064.jpg'
p206
tp207
a((I116
I110
I111
tS'C:\\dev\\github\\hackbaseball\\blob\\temp\\flick1065.jpg'
p208
tp209
a((I110
I105
I121
tS'C:\\dev\\github\\hackbaseball\\blob\\temp\\flick1066.jpg'
p210
tp211
a((I120
I107
I100
tS'C:\\dev\\github\\hackbaseball\\blob\\temp\\flick1067.jpg'
p212
tp213
a((I120
I108
I95
tS'C:\\dev\\github\\hackbaseball\\blob\\temp\\flick1068.jpg'
p214
tp215
a((I115
I108
I106
tS'C:\\dev\\github\\hackbaseball\\blob\\temp\\flick1069.jpg'
p216
tp217
a((I116
I119
I123
tS'C:\\dev\\github\\hackbaseball\\blob\\temp\\flick1070.jpg'
p218
tp219
a((I110
I114
I122
tS'C:\\dev\\github\\hackbaseball\\blob\\temp\\flick1071.jpg'
p220
tp221
a((I146
I119
I103
tS'C:\\dev\\github\\hackbaseball\\blob\\temp\\flick1072.jpg'
p222
tp223
a((I131
I114
I117
tS'C:\\dev\\github\\hackbaseball\\blob\\temp\\flick1073.jpg'
p224
tp225
a((I129
I113
I95
tS'C:\\dev\\github\\hackbaseball\\blob\\temp\\flick1074.jpg'
p226
tp227
a((I120
I116
I113
tS'C:\\dev\\github\\hackbaseball\\blob\\temp\\flick1075.jpg'
p228
tp229
a((I115
I104
I100
tS'C:\\dev\\github\\hackbaseball\\blob\\temp\\flick1076.jpg'
p230
tp231
a((I116
I106
I103
tS'C:\\dev\\github\\hackbaseball\\blob\\temp\\flick1077.jpg'
p232
tp233
a((I130
I123
I114
tS'C:\\dev\\github\\hackbaseball\\blob\\temp\\flick1078.jpg'
p234
tp235
a((I103
I111
I92
tS'C:\\dev\\github\\hackbaseball\\blob\\temp\\flick1079.jpg'
p236
tp237
a((I121
I110
I94
tS'C:\\dev\\github\\hackbaseball\\blob\\temp\\flick1080.jpg'
p238
tp239
a((I118
I60
I60
tS'C:\\dev\\github\\hackbaseball\\blob\\temp\\flick1081.jpg'
p240
tp241
a((I138
I107
I111
tS'C:\\dev\\github\\hackbaseball\\blob\\temp\\flick1082.jpg'
p242
tp243
a((I131
I68
I62
tS'C:\\dev\\github\\hackbaseball\\blob\\temp\\flick1083.jpg'
p244
tp245
a((I121
I66
I62
tS'C:\\dev\\github\\hackbaseball\\blob\\temp\\flick1084.jpg'
p246
tp247
a((I107
I92
I83
tS'C:\\dev\\github\\hackbaseball\\blob\\temp\\flick1085.jpg'
p248
tp249
a((I106
I86
I82
tS'C:\\dev\\github\\hackbaseball\\blob\\temp\\flick1086.jpg'
p250
tp251
a((I150
I124
I119
tS'C:\\dev\\github\\hackbaseball\\blob\\temp\\flick1087.jpg'
p252
tp253
a((I130
I114
I107
tS'C:\\dev\\github\\hackbaseball\\blob\\temp\\flick1088.jpg'
p254
tp255
a((I105
I102
I90
tS'C:\\dev\\github\\hackbaseball\\blob\\temp\\flick1089.jpg'
p256
tp257
a((I106
I75
I76
tS'C:\\dev\\github\\hackbaseball\\blob\\temp\\flick1090.jpg'
p258
tp259
a((I124
I83
I73
tS'C:\\dev\\github\\hackbaseball\\blob\\temp\\flick1091.jpg'
p260
tp261
a((I99
I93
I85
tS'C:\\dev\\github\\hackbaseball\\blob\\temp\\flick1092.jpg'
p262
tp263
a((I101
I98
I92
tS'C:\\dev\\github\\hackbaseball\\blob\\temp\\flick1093.jpg'
p264
tp265
a((I140
I130
I135
tS'C:\\dev\\github\\hackbaseball\\blob\\temp\\flick1094.jpg'
p266
tp267
a((I150
I138
I138
tS'C:\\dev\\github\\hackbaseball\\blob\\temp\\flick1095.jpg'
p268
tp269
a((I145
I135
I142
tS'C:\\dev\\github\\hackbaseball\\blob\\temp\\flick1096.jpg'
p270
tp271
a((I125
I122
I118
tS'C:\\dev\\github\\hackbaseball\\blob\\temp\\flick11.jpg'
p272
tp273
a((I142
I157
I148
tS'C:\\dev\\github\\hackbaseball\\blob\\temp\\flick12.jpg'
p274
tp275
a((I158
I149
I132
tS'C:\\dev\\github\\hackbaseball\\blob\\temp\\flick13.jpg'
p276
tp277
a((I106
I92
I89
tS'C:\\dev\\github\\hackbaseball\\blob\\temp\\flick14.jpg'
p278
tp279
a((I110
I132
I126
tS'C:\\dev\\github\\hackbaseball\\blob\\temp\\flick15.jpg'
p280
tp281
a((I117
I120
I127
tS'C:\\dev\\github\\hackbaseball\\blob\\temp\\flick16.jpg'
p282
tp283
a((I121
I116
I101
tS'C:\\dev\\github\\hackbaseball\\blob\\temp\\flick17.jpg'
p284
tp285
a((I119
I120
I104
tS'C:\\dev\\github\\hackbaseball\\blob\\temp\\flick18.jpg'
p286
tp287
a((I116
I111
I97
tS'C:\\dev\\github\\hackbaseball\\blob\\temp\\flick19.jpg'
p288
tp289
a((I91
I104
I100
tS'C:\\dev\\github\\hackbaseball\\blob\\temp\\flick2.jpg'
p290
tp291
a((I120
I121
I102
tS'C:\\dev\\github\\hackbaseball\\blob\\temp\\flick20.jpg'
p292
tp293
a((I146
I124
I103
tS'C:\\dev\\github\\hackbaseball\\blob\\temp\\flick21.jpg'
p294
tp295
a((I115
I113
I94
tS'C:\\dev\\github\\hackbaseball\\blob\\temp\\flick22.jpg'
p296
tp297
a((I133
I132
I119
tS'C:\\dev\\github\\hackbaseball\\blob\\temp\\flick23.jpg'
p298
tp299
a((I117
I121
I122
tS'C:\\dev\\github\\hackbaseball\\blob\\temp\\flick24.jpg'
p300
tp301
a((I104
I108
I98
tS'C:\\dev\\github\\hackbaseball\\blob\\temp\\flick25.jpg'
p302
tp303
a((I110
I107
I94
tS'C:\\dev\\github\\hackbaseball\\blob\\temp\\flick26.jpg'
p304
tp305
a((I109
I119
I91
tS'C:\\dev\\github\\hackbaseball\\blob\\temp\\flick27.jpg'
p306
tp307
a((I138
I130
I143
tS'C:\\dev\\github\\hackbaseball\\blob\\temp\\flick28.jpg'
p308
tp309
a((I122
I152
I136
tS'C:\\dev\\github\\hackbaseball\\blob\\temp\\flick29.jpg'
p310
tp311
a((I143
I85
I80
tS'C:\\dev\\github\\hackbaseball\\blob\\temp\\flick3.jpg'
p312
tp313
a((I104
I111
I88
tS'C:\\dev\\github\\hackbaseball\\blob\\temp\\flick30.jpg'
p314
tp315
a((I104
I97
I97
tS'C:\\dev\\github\\hackbaseball\\blob\\temp\\flick31.jpg'
p316
tp317
a((I125
I117
I136
tS'C:\\dev\\github\\hackbaseball\\blob\\temp\\flick32.jpg'
p318
tp319
a((I135
I132
I110
tS'C:\\dev\\github\\hackbaseball\\blob\\temp\\flick33.jpg'
p320
tp321
a((I107
I119
I95
tS'C:\\dev\\github\\hackbaseball\\blob\\temp\\flick34.jpg'
p322
tp323
a((I120
I109
I105
tS'C:\\dev\\github\\hackbaseball\\blob\\temp\\flick35.jpg'
p324
tp325
a((I118
I123
I114
tS'C:\\dev\\github\\hackbaseball\\blob\\temp\\flick36.jpg'
p326
tp327
a((I124
I128
I134
tS'C:\\dev\\github\\hackbaseball\\blob\\temp\\flick37.jpg'
p328
tp329
a((I119
I124
I130
tS'C:\\dev\\github\\hackbaseball\\blob\\temp\\flick38.jpg'
p330
tp331
a((I118
I119
I127
tS'C:\\dev\\github\\hackbaseball\\blob\\temp\\flick39.jpg'
p332
tp333
a((I119
I102
I106
tS'C:\\dev\\github\\hackbaseball\\blob\\temp\\flick4.jpg'
p334
tp335
a((I106
I112
I95
tS'C:\\dev\\github\\hackbaseball\\blob\\temp\\flick40.jpg'
p336
tp337
a((I104
I105
I111
tS'C:\\dev\\github\\hackbaseball\\blob\\temp\\flick41.jpg'
p338
tp339
a((I120
I114
I126
tS'C:\\dev\\github\\hackbaseball\\blob\\temp\\flick42.jpg'
p340
tp341
a((I108
I111
I114
tS'C:\\dev\\github\\hackbaseball\\blob\\temp\\flick43.jpg'
p342
tp343
a((I116
I127
I106
tS'C:\\dev\\github\\hackbaseball\\blob\\temp\\flick44.jpg'
p344
tp345
a((I125
I132
I119
tS'C:\\dev\\github\\hackbaseball\\blob\\temp\\flick45.jpg'
p346
tp347
a((I96
I105
I85
tS'C:\\dev\\github\\hackbaseball\\blob\\temp\\flick46.jpg'
p348
tp349
a((I99
I98
I115
tS'C:\\dev\\github\\hackbaseball\\blob\\temp\\flick47.jpg'
p350
tp351
a((I105
I111
I120
tS'C:\\dev\\github\\hackbaseball\\blob\\temp\\flick48.jpg'
p352
tp353
a((I110
I110
I114
tS'C:\\dev\\github\\hackbaseball\\blob\\temp\\flick49.jpg'
p354
tp355
a((I95
I65
I70
tS'C:\\dev\\github\\hackbaseball\\blob\\temp\\flick5.jpg'
p356
tp357
a((I150
I149
I150
tS'C:\\dev\\github\\hackbaseball\\blob\\temp\\flick50.jpg'
p358
tp359
a((I109
I109
I117
tS'C:\\dev\\github\\hackbaseball\\blob\\temp\\flick51.jpg'
p360
tp361
a((I122
I110
I95
tS'C:\\dev\\github\\hackbaseball\\blob\\temp\\flick52.jpg'
p362
tp363
a((I127
I144
I126
tS'C:\\dev\\github\\hackbaseball\\blob\\temp\\flick53.jpg'
p364
tp365
a((I110
I109
I112
tS'C:\\dev\\github\\hackbaseball\\blob\\temp\\flick54.jpg'
p366
tp367
a((I126
I126
I121
tS'C:\\dev\\github\\hackbaseball\\blob\\temp\\flick55.jpg'
p368
tp369
a((I127
I129
I113
tS'C:\\dev\\github\\hackbaseball\\blob\\temp\\flick56.jpg'
p370
tp371
a((I138
I143
I133
tS'C:\\dev\\github\\hackbaseball\\blob\\temp\\flick57.jpg'
p372
tp373
a((I123
I119
I117
tS'C:\\dev\\github\\hackbaseball\\blob\\temp\\flick58.jpg'
p374
tp375
a((I113
I105
I98
tS'C:\\dev\\github\\hackbaseball\\blob\\temp\\flick59.jpg'
p376
tp377
a((I115
I126
I120
tS'C:\\dev\\github\\hackbaseball\\blob\\temp\\flick6.jpg'
p378
tp379
a((I119
I116
I119
tS'C:\\dev\\github\\hackbaseball\\blob\\temp\\flick60.jpg'
p380
tp381
a((I136
I143
I116
tS'C:\\dev\\github\\hackbaseball\\blob\\temp\\flick61.jpg'
p382
tp383
a((I159
I137
I143
tS'C:\\dev\\github\\hackbaseball\\blob\\temp\\flick62.jpg'
p384
tp385
a((I126
I110
I117
tS'C:\\dev\\github\\hackbaseball\\blob\\temp\\flick63.jpg'
p386
tp387
a((I128
I116
I90
tS'C:\\dev\\github\\hackbaseball\\blob\\temp\\flick64.jpg'
p388
tp389
a((I150
I126
I108
tS'C:\\dev\\github\\hackbaseball\\blob\\temp\\flick65.jpg'
p390
tp391
a((I116
I110
I111
tS'C:\\dev\\github\\hackbaseball\\blob\\temp\\flick66.jpg'
p392
tp393
a((I110
I105
I121
tS'C:\\dev\\github\\hackbaseball\\blob\\temp\\flick67.jpg'
p394
tp395
a((I120
I107
I100
tS'C:\\dev\\github\\hackbaseball\\blob\\temp\\flick68.jpg'
p396
tp397
a((I120
I108
I95
tS'C:\\dev\\github\\hackbaseball\\blob\\temp\\flick69.jpg'
p398
tp399
a((I181
I170
I114
tS'C:\\dev\\github\\hackbaseball\\blob\\temp\\flick7.jpg'
p400
tp401
a((I115
I108
I106
tS'C:\\dev\\github\\hackbaseball\\blob\\temp\\flick70.jpg'
p402
tp403
a((I116
I119
I123
tS'C:\\dev\\github\\hackbaseball\\blob\\temp\\flick71.jpg'
p404
tp405
a((I110
I114
I122
tS'C:\\dev\\github\\hackbaseball\\blob\\temp\\flick72.jpg'
p406
tp407
a((I146
I119
I103
tS'C:\\dev\\github\\hackbaseball\\blob\\temp\\flick73.jpg'
p408
tp409
a((I131
I114
I117
tS'C:\\dev\\github\\hackbaseball\\blob\\temp\\flick74.jpg'
p410
tp411
a((I129
I113
I95
tS'C:\\dev\\github\\hackbaseball\\blob\\temp\\flick75.jpg'
p412
tp413
a((I120
I116
I113
tS'C:\\dev\\github\\hackbaseball\\blob\\temp\\flick76.jpg'
p414
tp415
a((I115
I104
I100
tS'C:\\dev\\github\\hackbaseball\\blob\\temp\\flick77.jpg'
p416
tp417
a((I116
I106
I103
tS'C:\\dev\\github\\hackbaseball\\blob\\temp\\flick78.jpg'
p418
tp419
a((I130
I123
I114
tS'C:\\dev\\github\\hackbaseball\\blob\\temp\\flick79.jpg'
p420
tp421
a((I153
I150
I147
tS'C:\\dev\\github\\hackbaseball\\blob\\temp\\flick8.jpg'
p422
tp423
a((I103
I111
I92
tS'C:\\dev\\github\\hackbaseball\\blob\\temp\\flick80.jpg'
p424
tp425
a((I97
I107
I99
tS'C:\\dev\\github\\hackbaseball\\blob\\temp\\flick9.jpg'
p426
tp427
a.